target datalayout = "e-m:e-p270:32:32-p271:32:32-p272:64:64-i64:64-i128:128-f80:128-n8:16:32:64-S128"
target triple = "x86_64-pc-linux-gnu"

%struct.stbvox_mesh_maker = type { %struct.stbvox_input_description, i32, i32, i32, i32, i32, i32, i32, i32, i32, i32, i32, i32, i32, i32, [6 x [4 x i32]], [6 x [4 x i32]], i32, i32, i32, i32, [2 x [3 x ptr]], [2 x [3 x ptr]], [2 x [3 x ptr]], [2 x [3 x i32]], [2 x [3 x i32]], [2 x [3 x i32]], i32, [128 x [2 x float]] }
%struct.stbvox_input_description = type { i8, ptr, ptr, ptr, ptr, ptr, ptr, ptr, ptr, ptr, ptr, ptr, ptr, ptr, ptr, ptr, ptr, ptr, ptr, ptr, ptr, ptr, ptr, ptr, ptr, ptr, ptr, ptr, ptr, ptr, ptr, ptr, ptr, ptr, ptr, ptr, ptr, ptr, ptr, ptr, ptr, ptr, ptr }

; Function Attrs: nounwind uwtable
define void @stbvox_get_bounds(ptr noundef %0, ptr noundef %1) #0 {
  %3 = alloca ptr, align 8
  %4 = alloca ptr, align 8
  store ptr %0, ptr %3, align 8, !tbaa !20
  store ptr %1, ptr %4, align 8, !tbaa !18
  %5 = load ptr, ptr %3, align 8, !tbaa !20
  %6 = getelementptr inbounds nuw %struct.stbvox_mesh_maker, ptr %5, i32 0, i32 17
  %7 = load i32, ptr %6, align 8, !tbaa !120
  %8 = load ptr, ptr %3, align 8, !tbaa !20
  %9 = getelementptr inbounds nuw %struct.stbvox_mesh_maker, ptr %8, i32 0, i32 4
  %10 = load i32, ptr %9, align 4, !tbaa !106
  %11 = add nsw i32 %7, %10
  %12 = sitofp i32 %11 to float
  %13 = load ptr, ptr %4, align 8, !tbaa !18
  %14 = getelementptr inbounds [3 x float], ptr %13, i64 0
  %15 = getelementptr inbounds [3 x float], ptr %14, i64 0, i64 0
  store float %12, ptr %15, align 4, !tbaa !8
  %16 = load ptr, ptr %3, align 8, !tbaa !20
  %17 = getelementptr inbounds nuw %struct.stbvox_mesh_maker, ptr %16, i32 0, i32 18
  %18 = load i32, ptr %17, align 4, !tbaa !121
  %19 = load ptr, ptr %3, align 8, !tbaa !20
  %20 = getelementptr inbounds nuw %struct.stbvox_mesh_maker, ptr %19, i32 0, i32 5
  %21 = load i32, ptr %20, align 8, !tbaa !108
  %22 = add nsw i32 %18, %21
  %23 = sitofp i32 %22 to float
  %24 = load ptr, ptr %4, align 8, !tbaa !18
  %25 = getelementptr inbounds [3 x float], ptr %24, i64 0
  %26 = getelementptr inbounds [3 x float], ptr %25, i64 0, i64 1
  store float %23, ptr %26, align 4, !tbaa !8
  %27 = load ptr, ptr %3, align 8, !tbaa !20
  %28 = getelementptr inbounds nuw %struct.stbvox_mesh_maker, ptr %27, i32 0, i32 19
  %29 = load i32, ptr %28, align 8, !tbaa !122
  %30 = load ptr, ptr %3, align 8, !tbaa !20
  %31 = getelementptr inbounds nuw %struct.stbvox_mesh_maker, ptr %30, i32 0, i32 6
  %32 = load i32, ptr %31, align 4, !tbaa !109
  %33 = add nsw i32 %29, %32
  %34 = sitofp i32 %33 to float
  %35 = load ptr, ptr %4, align 8, !tbaa !18
  %36 = getelementptr inbounds [3 x float], ptr %35, i64 0
  %37 = getelementptr inbounds [3 x float], ptr %36, i64 0, i64 2
  store float %34, ptr %37, align 4, !tbaa !8
  %38 = load ptr, ptr %3, align 8, !tbaa !20
  %39 = getelementptr inbounds nuw %struct.stbvox_mesh_maker, ptr %38, i32 0, i32 17
  %40 = load i32, ptr %39, align 8, !tbaa !120
  %41 = load ptr, ptr %3, align 8, !tbaa !20
  %42 = getelementptr inbounds nuw %struct.stbvox_mesh_maker, ptr %41, i32 0, i32 7
  %43 = load i32, ptr %42, align 8, !tbaa !112
  %44 = add nsw i32 %40, %43
  %45 = sitofp i32 %44 to float
  %46 = load ptr, ptr %4, align 8, !tbaa !18
  %47 = getelementptr inbounds [3 x float], ptr %46, i64 1
  %48 = getelementptr inbounds [3 x float], ptr %47, i64 0, i64 0
  store float %45, ptr %48, align 4, !tbaa !8
  %49 = load ptr, ptr %3, align 8, !tbaa !20
  %50 = getelementptr inbounds nuw %struct.stbvox_mesh_maker, ptr %49, i32 0, i32 18
  %51 = load i32, ptr %50, align 4, !tbaa !121
  %52 = load ptr, ptr %3, align 8, !tbaa !20
  %53 = getelementptr inbounds nuw %struct.stbvox_mesh_maker, ptr %52, i32 0, i32 8
  %54 = load i32, ptr %53, align 4, !tbaa !110
  %55 = add nsw i32 %51, %54
  %56 = sitofp i32 %55 to float
  %57 = load ptr, ptr %4, align 8, !tbaa !18
  %58 = getelementptr inbounds [3 x float], ptr %57, i64 1
  %59 = getelementptr inbounds [3 x float], ptr %58, i64 0, i64 1
  store float %56, ptr %59, align 4, !tbaa !8
  %60 = load ptr, ptr %3, align 8, !tbaa !20
  %61 = getelementptr inbounds nuw %struct.stbvox_mesh_maker, ptr %60, i32 0, i32 19
  %62 = load i32, ptr %61, align 8, !tbaa !122
  %63 = load ptr, ptr %3, align 8, !tbaa !20
  %64 = getelementptr inbounds nuw %struct.stbvox_mesh_maker, ptr %63, i32 0, i32 9
  %65 = load i32, ptr %64, align 8, !tbaa !97
  %66 = add nsw i32 %62, %65
  %67 = sitofp i32 %66 to float
  %68 = load ptr, ptr %4, align 8, !tbaa !18
  %69 = getelementptr inbounds [3 x float], ptr %68, i64 1
  %70 = getelementptr inbounds [3 x float], ptr %69, i64 0, i64 2
  store float %67, ptr %70, align 4, !tbaa !8
  ret void
}