; Function Attrs: mustprogress nofree norecurse nosync nounwind willreturn memory(argmem: readwrite) uwtable
define void @stbvox_get_bounds(ptr noundef readonly captures(none) %0, ptr noundef writeonly captures(none) initializes((0, 24)) %1) local_unnamed_addr #11 {
  %3 = getelementptr inbounds nuw i8, ptr %0, i64 592
  %4 = load i32, ptr %3, align 8, !tbaa !99
  %5 = getelementptr inbounds nuw i8, ptr %0, i64 356
  %6 = load i32, ptr %5, align 4, !tbaa !89
  %7 = add nsw i32 %6, %4
  %8 = sitofp i32 %7 to float
  store float %8, ptr %1, align 4, !tbaa !6
  %9 = getelementptr inbounds nuw i8, ptr %0, i64 596
  %10 = load i32, ptr %9, align 4, !tbaa !100
  %11 = getelementptr inbounds nuw i8, ptr %0, i64 360
  %12 = load i32, ptr %11, align 8, !tbaa !91
  %13 = add nsw i32 %12, %10
  %14 = sitofp i32 %13 to float
  %15 = getelementptr inbounds nuw i8, ptr %1, i64 4
  store float %14, ptr %15, align 4, !tbaa !6
  %16 = getelementptr inbounds nuw i8, ptr %0, i64 600
  %17 = load i32, ptr %16, align 8, !tbaa !101
  %18 = getelementptr inbounds nuw i8, ptr %0, i64 364
  %19 = load i32, ptr %18, align 4, !tbaa !92
  %20 = add nsw i32 %19, %17
  %21 = sitofp i32 %20 to float
  %22 = getelementptr inbounds nuw i8, ptr %1, i64 8
  store float %21, ptr %22, align 4, !tbaa !6
  %23 = getelementptr inbounds nuw i8, ptr %0, i64 368
  %24 = load i32, ptr %23, align 8, !tbaa !95
  %25 = add nsw i32 %24, %4
  %26 = sitofp i32 %25 to float
  %27 = getelementptr inbounds nuw i8, ptr %1, i64 12
  store float %26, ptr %27, align 4, !tbaa !6
  %28 = getelementptr inbounds nuw i8, ptr %0, i64 372
  %29 = load i32, ptr %28, align 4, !tbaa !93
  %30 = add nsw i32 %29, %10
  %31 = sitofp i32 %30 to float
  %32 = getelementptr inbounds nuw i8, ptr %1, i64 16
  store float %31, ptr %32, align 4, !tbaa !6
  %33 = getelementptr inbounds nuw i8, ptr %0, i64 376
  %34 = load i32, ptr %33, align 8, !tbaa !81
  %35 = add nsw i32 %34, %17
  %36 = sitofp i32 %35 to float
  %37 = getelementptr inbounds nuw i8, ptr %1, i64 20
  store float %36, ptr %37, align 4, !tbaa !6
  ret void
}